target datalayout = "e-m:e-p270:32:32-p271:32:32-p272:64:64-i64:64-i128:128-f80:128-n8:16:32:64-S128"
target triple = "x86_64-pc-linux-gnu"

%struct.anon = type { ptr }
%struct.JNINativeInterface_ = type { ptr, ptr, ptr, ptr, ptr, ptr, ptr, ptr, ptr, ptr, ptr, ptr, ptr, ptr, ptr, ptr, ptr, ptr, ptr, ptr, ptr, ptr, ptr, ptr, ptr, ptr, ptr, ptr, ptr, ptr, ptr, ptr, ptr, ptr, ptr, ptr, ptr, ptr, ptr, ptr, ptr, ptr, ptr, ptr, ptr, ptr, ptr, ptr, ptr, ptr, ptr, ptr, ptr, ptr, ptr, ptr, ptr, ptr, ptr, ptr, ptr, ptr, ptr, ptr, ptr, ptr, ptr, ptr, ptr, ptr, ptr, ptr, ptr, ptr, ptr, ptr, ptr, ptr, ptr, ptr, ptr, ptr, ptr, ptr, ptr, ptr, ptr, ptr, ptr, ptr, ptr, ptr, ptr, ptr, ptr, ptr, ptr, ptr, ptr, ptr, ptr, ptr, ptr, ptr, ptr, ptr, ptr, ptr, ptr, ptr, ptr, ptr, ptr, ptr, ptr, ptr, ptr, ptr, ptr, ptr, ptr, ptr, ptr, ptr, ptr, ptr, ptr, ptr, ptr, ptr, ptr, ptr, ptr, ptr, ptr, ptr, ptr, ptr, ptr, ptr, ptr, ptr, ptr, ptr, ptr, ptr, ptr, ptr, ptr, ptr, ptr, ptr, ptr, ptr, ptr, ptr, ptr, ptr, ptr, ptr, ptr, ptr, ptr, ptr, ptr, ptr, ptr, ptr, ptr, ptr, ptr, ptr, ptr, ptr, ptr, ptr, ptr, ptr, ptr, ptr, ptr, ptr, ptr, ptr, ptr, ptr, ptr, ptr, ptr, ptr, ptr, ptr, ptr, ptr, ptr, ptr, ptr, ptr, ptr, ptr, ptr, ptr, ptr, ptr, ptr, ptr, ptr, ptr, ptr, ptr, ptr, ptr, ptr, ptr, ptr, ptr, ptr, ptr, ptr, ptr, ptr, ptr, ptr, ptr, ptr, ptr, ptr, ptr, ptr, ptr, ptr, ptr, ptr, ptr, ptr }
%struct.stat = type { i64, i64, i64, i32, i32, i32, i32, i64, i64, i64, i64, %struct.timespec, %struct.timespec, %struct.timespec, [3 x i64] }
%struct.timespec = type { i64, i64 }

@ids = internal global %struct.anon zeroinitializer, align 8

; Function Attrs: nounwind uwtable
define internal zeroext i8 @statMode(ptr noundef %0, ptr noundef %1) #0 {
  %3 = alloca i8, align 1
  %4 = alloca ptr, align 8
  %5 = alloca ptr, align 8
  %6 = alloca %struct.stat, align 8
  store ptr %0, ptr %4, align 8
  store ptr %1, ptr %5, align 8
  %7 = load ptr, ptr %4, align 8
  %8 = call i32 @stat64(ptr noundef %7, ptr noundef %6) #6
  %9 = icmp eq i32 %8, 0
  br i1 %9, label %10, label %14

10:                                               ; preds = %2
  %11 = getelementptr inbounds %struct.stat, ptr %6, i32 0, i32 3
  %12 = load i32, ptr %11, align 8
  %13 = load ptr, ptr %5, align 8
  store i32 %12, ptr %13, align 4
  store i8 1, ptr %3, align 1
  br label %15

14:                                               ; preds = %2
  store i8 0, ptr %3, align 1
  br label %15

15:                                               ; preds = %14, %10
  %16 = load i8, ptr %3, align 1
  ret i8 %16
}

; Function Attrs: nounwind uwtable
define i32 @Java_java_io_UnixFileSystem_getBooleanAttributes0(ptr noundef %0, ptr noundef %1, ptr noundef %2) #0 {
  %4 = alloca ptr, align 8
  %5 = alloca ptr, align 8
  %6 = alloca ptr, align 8
  %7 = alloca i32, align 4
  %8 = alloca ptr, align 8
  %9 = alloca ptr, align 8
  %10 = alloca i32, align 4
  %11 = alloca i32, align 4
  store ptr %0, ptr %4, align 8
  store ptr %1, ptr %5, align 8
  store ptr %2, ptr %6, align 8
  store i32 0, ptr %7, align 4
  %12 = load ptr, ptr %6, align 8
  %13 = icmp eq ptr %12, null
  br i1 %13, label %14, label %15

14:                                               ; preds = %3
  br label %24

15:                                               ; preds = %3
  %16 = load ptr, ptr %4, align 8
  %17 = load ptr, ptr %16, align 8
  %18 = getelementptr inbounds %struct.JNINativeInterface_, ptr %17, i32 0, i32 95
  %19 = load ptr, ptr %18, align 8
  %20 = load ptr, ptr %4, align 8
  %21 = load ptr, ptr %6, align 8
  %22 = load ptr, ptr @ids, align 8
  %23 = call ptr %19(ptr noundef %20, ptr noundef %21, ptr noundef %22)
  br label %24

24:                                               ; preds = %15, %14
  %25 = phi ptr [ null, %14 ], [ %23, %15 ]
  store ptr %25, ptr %9, align 8
  %26 = load ptr, ptr %9, align 8
  %27 = icmp eq ptr %26, null
  br i1 %27, label %28, label %30

28:                                               ; preds = %24
  %29 = load ptr, ptr %4, align 8
  call void @JNU_ThrowNullPointerException(ptr noundef %29, ptr noundef null)
  br label %57

30:                                               ; preds = %24
  %31 = load ptr, ptr %4, align 8
  %32 = load ptr, ptr %9, align 8
  %33 = call ptr @JNU_GetStringPlatformChars(ptr noundef %31, ptr noundef %32, ptr noundef null)
  store ptr %33, ptr %8, align 8
  %34 = load ptr, ptr %8, align 8
  %35 = icmp eq ptr %34, null
  br i1 %35, label %36, label %37

36:                                               ; preds = %30
  br label %57

37:                                               ; preds = %30
  %38 = load ptr, ptr %8, align 8
  %39 = call zeroext i8 @statMode(ptr noundef %38, ptr noundef %10)
  %40 = icmp ne i8 %39, 0
  br i1 %40, label %41, label %53

41:                                               ; preds = %37
  %42 = load i32, ptr %10, align 4
  %43 = and i32 %42, 61440
  store i32 %43, ptr %11, align 4
  %44 = load i32, ptr %11, align 4
  %45 = icmp eq i32 %44, 32768
  %46 = select i1 %45, i64 2, i64 0
  %47 = or i64 1, %46
  %48 = load i32, ptr %11, align 4
  %49 = icmp eq i32 %48, 16384
  %50 = select i1 %49, i64 4, i64 0
  %51 = or i64 %47, %50
  %52 = trunc i64 %51 to i32
  store i32 %52, ptr %7, align 4
  br label %53

53:                                               ; preds = %41, %37
  %54 = load ptr, ptr %4, align 8
  %55 = load ptr, ptr %9, align 8
  %56 = load ptr, ptr %8, align 8
  call void @JNU_ReleaseStringPlatformChars(ptr noundef %54, ptr noundef %55, ptr noundef %56)
  br label %57

57:                                               ; preds = %53, %36, %28
  %58 = load i32, ptr %7, align 4
  ret i32 %58
}