; Function Attrs: nounwind uwtable
define range(i32 0, 8) i32 @Java_java_io_UnixFileSystem_getBooleanAttributes0(ptr noundef %0, ptr nocapture noundef readnone %1, ptr noundef %2) local_unnamed_addr #0 {
  %4 = alloca %struct.stat, align 8
  %5 = icmp eq ptr %2, null
  br i1 %5, label %.thread, label %6

6:                                                ; preds = %3
  %7 = load ptr, ptr %0, align 8
  %8 = getelementptr inbounds i8, ptr %7, i64 760
  %9 = load ptr, ptr %8, align 8
  %10 = load ptr, ptr @ids.0, align 8
  %11 = tail call ptr %9(ptr noundef nonnull %0, ptr noundef nonnull %2, ptr noundef %10) #7
  %12 = icmp eq ptr %11, null
  br i1 %12, label %.thread, label %13

.thread:                                          ; preds = %3, %6
  tail call void @JNU_ThrowNullPointerException(ptr noundef %0, ptr noundef null) #7
  br label %29

13:                                               ; preds = %6
  %14 = tail call ptr @JNU_GetStringPlatformChars(ptr noundef nonnull %0, ptr noundef nonnull %11, ptr noundef null) #7
  %15 = icmp eq ptr %14, null
  br i1 %15, label %29, label %16

16:                                               ; preds = %13
  call void @llvm.lifetime.start.p0(i64 144, ptr nonnull %4)
  %17 = call i32 @stat64(ptr noundef nonnull readonly %14, ptr noundef nonnull %4) #7
  %18 = icmp eq i32 %17, 0
  br i1 %18, label %19, label %statMode.exit.thread

statMode.exit.thread:                             ; preds = %16
  call void @llvm.lifetime.end.p0(i64 144, ptr nonnull %4)
  br label %28

19:                                               ; preds = %16
  %20 = getelementptr inbounds i8, ptr %4, i64 24
  %21 = load i32, ptr %20, align 8
  call void @llvm.lifetime.end.p0(i64 144, ptr nonnull %4)
  %22 = and i32 %21, 61440
  %23 = icmp eq i32 %22, 32768
  %24 = select i1 %23, i32 3, i32 1
  %25 = icmp eq i32 %22, 16384
  %26 = select i1 %25, i32 4, i32 0
  %27 = or disjoint i32 %24, %26
  br label %28

28:                                               ; preds = %statMode.exit.thread, %19
  %.0 = phi i32 [ %27, %19 ], [ 0, %statMode.exit.thread ]
  tail call void @JNU_ReleaseStringPlatformChars(ptr noundef nonnull %0, ptr noundef nonnull %11, ptr noundef nonnull %14) #7
  br label %29

29:                                               ; preds = %13, %28, %.thread
  %.1 = phi i32 [ 0, %.thread ], [ 0, %13 ], [ %.0, %28 ]
  ret i32 %.1
}